; ModuleID = '24/2632.c'
source_filename = "24/2632.c"
target datalayout = "e-m:e-p270:32:32-p271:32:32-p272:64:64-i64:64-f80:128-n8:16:32:64-S128"
target triple = "x86_64-pc-linux-gnu"

@.str = private unnamed_addr constant [3 x i8] c"%d\00", align 1
@.str.1 = private unnamed_addr constant [3 x i8] c"%s\00", align 1
@.str.2 = private unnamed_addr constant [4 x i8] c"%s\0A\00", align 1

; Function Attrs: noinline nounwind uwtable
define dso_local i32 @main() #0 {
  %1 = alloca i32, align 4
  %2 = alloca i32, align 4
  %3 = alloca i32, align 4
  %4 = alloca [250 x i32], align 16
  %5 = alloca i32, align 4
  %6 = alloca i32, align 4
  %7 = alloca [250 x [50 x i8]], align 16
  store i32 0, i32* %1, align 4
  %8 = bitcast [250 x i32]* %4 to i8*
  call void @llvm.memset.p0i8.i64(i8* align 16 %8, i8 0, i64 1000, i1 false)
  store i32 100, i32* %5, align 4
  store i32 0, i32* %6, align 4
  %9 = bitcast [250 x [50 x i8]]* %7 to i8*
  call void @llvm.memset.p0i8.i64(i8* align 16 %9, i8 0, i64 12500, i1 false)
  %10 = call i32 (i8*, ...) @__isoc99_scanf(i8* getelementptr inbounds ([3 x i8], [3 x i8]* @.str, i64 0, i64 0), i32* %3)
  store i32 0, i32* %2, align 4
  br label %11

11:                                               ; preds = %22, %0
  %12 = load i32, i32* %2, align 4
  %13 = load i32, i32* %3, align 4
  %14 = icmp slt i32 %12, %13
  br i1 %14, label %15, label %25

15:                                               ; preds = %11
  %16 = getelementptr inbounds [250 x [50 x i8]], [250 x [50 x i8]]* %7, i64 0, i64 0
  %17 = load i32, i32* %2, align 4
  %18 = sext i32 %17 to i64
  %19 = getelementptr inbounds [50 x i8], [50 x i8]* %16, i64 %18
  %20 = getelementptr inbounds [50 x i8], [50 x i8]* %19, i64 0, i64 0
  %21 = call i32 (i8*, ...) @__isoc99_scanf(i8* getelementptr inbounds ([3 x i8], [3 x i8]* @.str.1, i64 0, i64 0), i8* %20)
  br label %22

22:                                               ; preds = %15
  %23 = load i32, i32* %2, align 4
  %24 = add nsw i32 %23, 1
  store i32 %24, i32* %2, align 4
  br label %11

25:                                               ; preds = %11
  store i32 0, i32* %2, align 4
  br label %26

26:                                               ; preds = %42, %25
  %27 = load i32, i32* %2, align 4
  %28 = load i32, i32* %3, align 4
  %29 = icmp slt i32 %27, %28
  br i1 %29, label %30, label %45

30:                                               ; preds = %26
  %31 = getelementptr inbounds [250 x [50 x i8]], [250 x [50 x i8]]* %7, i64 0, i64 0
  %32 = load i32, i32* %2, align 4
  %33 = sext i32 %32 to i64
  %34 = getelementptr inbounds [50 x i8], [50 x i8]* %31, i64 %33
  %35 = getelementptr inbounds [50 x i8], [50 x i8]* %34, i64 0, i64 0
  %36 = call i64 @strlen(i8* %35) #4
  %37 = trunc i64 %36 to i32
  %38 = getelementptr inbounds [250 x i32], [250 x i32]* %4, i64 0, i64 0
  %39 = load i32, i32* %2, align 4
  %40 = sext i32 %39 to i64
  %41 = getelementptr inbounds i32, i32* %38, i64 %40
  store i32 %37, i32* %41, align 4
  br label %42

42:                                               ; preds = %30
  %43 = load i32, i32* %2, align 4
  %44 = add nsw i32 %43, 1
  store i32 %44, i32* %2, align 4
  br label %26

45:                                               ; preds = %26
  store i32 0, i32* %2, align 4
  br label %46

46:                                               ; preds = %79, %45
  %47 = load i32, i32* %2, align 4
  %48 = load i32, i32* %3, align 4
  %49 = icmp slt i32 %47, %48
  br i1 %49, label %50, label %82

50:                                               ; preds = %46
  %51 = getelementptr inbounds [250 x i32], [250 x i32]* %4, i64 0, i64 0
  %52 = load i32, i32* %2, align 4
  %53 = sext i32 %52 to i64
  %54 = getelementptr inbounds i32, i32* %51, i64 %53
  %55 = load i32, i32* %54, align 4
  %56 = load i32, i32* %6, align 4
  %57 = icmp sgt i32 %55, %56
  br i1 %57, label %58, label %64

58:                                               ; preds = %50
  %59 = getelementptr inbounds [250 x i32], [250 x i32]* %4, i64 0, i64 0
  %60 = load i32, i32* %2, align 4
  %61 = sext i32 %60 to i64
  %62 = getelementptr inbounds i32, i32* %59, i64 %61
  %63 = load i32, i32* %62, align 4
  store i32 %63, i32* %6, align 4
  br label %64

64:                                               ; preds = %58, %50
  %65 = getelementptr inbounds [250 x i32], [250 x i32]* %4, i64 0, i64 0
  %66 = load i32, i32* %2, align 4
  %67 = sext i32 %66 to i64
  %68 = getelementptr inbounds i32, i32* %65, i64 %67
  %69 = load i32, i32* %68, align 4
  %70 = load i32, i32* %5, align 4
  %71 = icmp slt i32 %69, %70
  br i1 %71, label %72, label %78

72:                                               ; preds = %64
  %73 = getelementptr inbounds [250 x i32], [250 x i32]* %4, i64 0, i64 0
  %74 = load i32, i32* %2, align 4
  %75 = sext i32 %74 to i64
  %76 = getelementptr inbounds i32, i32* %73, i64 %75
  %77 = load i32, i32* %76, align 4
  store i32 %77, i32* %5, align 4
  br label %78

78:                                               ; preds = %72, %64
  br label %79

79:                                               ; preds = %78
  %80 = load i32, i32* %2, align 4
  %81 = add nsw i32 %80, 1
  store i32 %81, i32* %2, align 4
  br label %46

82:                                               ; preds = %46
  store i32 0, i32* %2, align 4
  br label %83

83:                                               ; preds = %103, %82
  %84 = load i32, i32* %2, align 4
  %85 = load i32, i32* %3, align 4
  %86 = icmp slt i32 %84, %85
  br i1 %86, label %87, label %106

87:                                               ; preds = %83
  %88 = getelementptr inbounds [250 x i32], [250 x i32]* %4, i64 0, i64 0
  %89 = load i32, i32* %2, align 4
  %90 = sext i32 %89 to i64
  %91 = getelementptr inbounds i32, i32* %88, i64 %90
  %92 = load i32, i32* %91, align 4
  %93 = load i32, i32* %6, align 4
  %94 = icmp eq i32 %92, %93
  br i1 %94, label %95, label %102

95:                                               ; preds = %87
  %96 = getelementptr inbounds [250 x [50 x i8]], [250 x [50 x i8]]* %7, i64 0, i64 0
  %97 = load i32, i32* %2, align 4
  %98 = sext i32 %97 to i64
  %99 = getelementptr inbounds [50 x i8], [50 x i8]* %96, i64 %98
  %100 = getelementptr inbounds [50 x i8], [50 x i8]* %99, i64 0, i64 0
  %101 = call i32 (i8*, ...) @printf(i8* getelementptr inbounds ([4 x i8], [4 x i8]* @.str.2, i64 0, i64 0), i8* %100)
  br label %106

102:                                              ; preds = %87
  br label %103

103:                                              ; preds = %102
  %104 = load i32, i32* %2, align 4
  %105 = add nsw i32 %104, 1
  store i32 %105, i32* %2, align 4
  br label %83

106:                                              ; preds = %95, %83
  store i32 0, i32* %2, align 4
  br label %107

107:                                              ; preds = %127, %106
  %108 = load i32, i32* %2, align 4
  %109 = load i32, i32* %3, align 4
  %110 = icmp slt i32 %108, %109
  br i1 %110, label %111, label %130

111:                                              ; preds = %107
  %112 = getelementptr inbounds [250 x i32], [250 x i32]* %4, i64 0, i64 0
  %113 = load i32, i32* %2, align 4
  %114 = sext i32 %113 to i64
  %115 = getelementptr inbounds i32, i32* %112, i64 %114
  %116 = load i32, i32* %115, align 4
  %117 = load i32, i32* %5, align 4
  %118 = icmp eq i32 %116, %117
  br i1 %118, label %119, label %126

119:                                              ; preds = %111
  %120 = getelementptr inbounds [250 x [50 x i8]], [250 x [50 x i8]]* %7, i64 0, i64 0
  %121 = load i32, i32* %2, align 4
  %122 = sext i32 %121 to i64
  %123 = getelementptr inbounds [50 x i8], [50 x i8]* %120, i64 %122
  %124 = getelementptr inbounds [50 x i8], [50 x i8]* %123, i64 0, i64 0
  %125 = call i32 (i8*, ...) @printf(i8* getelementptr inbounds ([4 x i8], [4 x i8]* @.str.2, i64 0, i64 0), i8* %124)
  br label %130

126:                                              ; preds = %111
  br label %127

127:                                              ; preds = %126
  %128 = load i32, i32* %2, align 4
  %129 = add nsw i32 %128, 1
  store i32 %129, i32* %2, align 4
  br label %107

130:                                              ; preds = %119, %107
  %131 = call i32 (i8*, ...) @__isoc99_scanf(i8* getelementptr inbounds ([3 x i8], [3 x i8]* @.str, i64 0, i64 0), i32* %3)
  ret i32 0
}

; Function Attrs: argmemonly nounwind willreturn
declare void @llvm.memset.p0i8.i64(i8* nocapture writeonly, i8, i64, i1 immarg) #1

declare dso_local i32 @__isoc99_scanf(i8*, ...) #2

; Function Attrs: nounwind readonly
declare dso_local i64 @strlen(i8*) #3

declare dso_local i32 @printf(i8*, ...) #2


!llvm.module.flags = !{!0}
!llvm.ident = !{!1}

!0 = !{i32 1, !"wchar_size", i32 4}
!1 = !{!"clang version 10.0.0-4ubuntu1 "}
